target datalayout = "e-m:e-p270:32:32-p271:32:32-p272:64:64-i64:64-i128:128-f80:128-n8:16:32:64-S128"
target triple = "x86_64-pc-linux-gnu"

%"class.ade::MemoryDescriptorRef" = type { ptr, %"struct.ade::util::DynMdSpan" }
%"struct.ade::util::DynMdSpan" = type { %"struct.std::array", i64 }
%"struct.std::array" = type { [6 x %"struct.ade::util::Span"] }
%"struct.ade::util::Span" = type { i32, i32 }

; Function Attrs: mustprogress uwtable
define hidden noundef ptr @_ZN3ade19MemoryDescriptorRef13getDescriptorEv(ptr noundef nonnull align 8 dereferenceable(64) %0) #1 align 2 {
  %2 = alloca ptr, align 8
  %3 = alloca ptr, align 8
  store ptr %0, ptr %3, align 8, !tbaa !3
  %4 = load ptr, ptr %3, align 8
  %5 = getelementptr inbounds nuw %"class.ade::MemoryDescriptorRef", ptr %4, i32 0, i32 0
  %6 = load ptr, ptr %5, align 8, !tbaa !8
  %7 = icmp eq ptr null, %6
  br i1 %7, label %8, label %9

8:                                                ; preds = %1
  store ptr null, ptr %2, align 8
  br label %13

9:                                                ; preds = %1
  %10 = getelementptr inbounds nuw %"class.ade::MemoryDescriptorRef", ptr %4, i32 0, i32 0
  %11 = load ptr, ptr %10, align 8, !tbaa !8
  %12 = call noundef ptr @_ZN3ade20MemoryDescriptorView13getDescriptorEv(ptr noundef nonnull align 8 dereferenceable(96) %11)
  store ptr %12, ptr %2, align 8
  br label %13

13:                                               ; preds = %9, %8
  %14 = load ptr, ptr %2, align 8
  ret ptr %14
}